target datalayout = "e-m:e-p270:32:32-p271:32:32-p272:64:64-i64:64-i128:128-f80:128-n8:16:32:64-S128"
target triple = "x86_64-pc-linux-gnu"

%struct.INamesArg = type { ptr, ptr, ptr, i32, ptr }
%struct.NameEntry = type { ptr, i32, i32, i32, i32, ptr }

; Function Attrs: nounwind uwtable
define internal i32 @i_names(ptr noundef %0, ptr noundef %1, ptr noundef %2) #0 {
  %4 = alloca i32, align 4
  %5 = alloca ptr, align 8
  %6 = alloca ptr, align 8
  %7 = alloca ptr, align 8
  %8 = alloca i32, align 4
  %9 = alloca i32, align 4
  store ptr %0, ptr %5, align 8, !tbaa !4
  store ptr %1, ptr %6, align 8, !tbaa !9
  store ptr %2, ptr %7, align 8, !tbaa !9
  call void @llvm.lifetime.start.p0(i64 4, ptr %8) #8
  %10 = load ptr, ptr %7, align 8, !tbaa !9
  %11 = getelementptr inbounds nuw %struct.INamesArg, ptr %10, i32 0, i32 0
  %12 = load ptr, ptr %11, align 8, !tbaa !41
  %13 = load ptr, ptr %6, align 8, !tbaa !9
  %14 = getelementptr inbounds nuw %struct.NameEntry, ptr %13, i32 0, i32 0
  %15 = load ptr, ptr %14, align 8, !tbaa !46
  %16 = load ptr, ptr %6, align 8, !tbaa !9
  %17 = getelementptr inbounds nuw %struct.NameEntry, ptr %16, i32 0, i32 0
  %18 = load ptr, ptr %17, align 8, !tbaa !46
  %19 = load ptr, ptr %6, align 8, !tbaa !9
  %20 = getelementptr inbounds nuw %struct.NameEntry, ptr %19, i32 0, i32 1
  %21 = load i32, ptr %20, align 8, !tbaa !49
  %22 = sext i32 %21 to i64
  %23 = getelementptr inbounds i8, ptr %18, i64 %22
  %24 = load ptr, ptr %6, align 8, !tbaa !9
  %25 = getelementptr inbounds nuw %struct.NameEntry, ptr %24, i32 0, i32 2
  %26 = load i32, ptr %25, align 4, !tbaa !50
  %27 = load ptr, ptr %6, align 8, !tbaa !9
  %28 = getelementptr inbounds nuw %struct.NameEntry, ptr %27, i32 0, i32 2
  %29 = load i32, ptr %28, align 4, !tbaa !50
  %30 = icmp sgt i32 %29, 1
  br i1 %30, label %31, label %35

31:                                               ; preds = %3
  %32 = load ptr, ptr %6, align 8, !tbaa !9
  %33 = getelementptr inbounds nuw %struct.NameEntry, ptr %32, i32 0, i32 5
  %34 = load ptr, ptr %33, align 8, !tbaa !51
  br label %38

35:                                               ; preds = %3
  %36 = load ptr, ptr %6, align 8, !tbaa !9
  %37 = getelementptr inbounds nuw %struct.NameEntry, ptr %36, i32 0, i32 4
  br label %38

38:                                               ; preds = %35, %31
  %39 = phi ptr [ %34, %31 ], [ %37, %35 ]
  %40 = load ptr, ptr %7, align 8, !tbaa !9
  %41 = getelementptr inbounds nuw %struct.INamesArg, ptr %40, i32 0, i32 1
  %42 = load ptr, ptr %41, align 8, !tbaa !42
  %43 = load ptr, ptr %7, align 8, !tbaa !9
  %44 = getelementptr inbounds nuw %struct.INamesArg, ptr %43, i32 0, i32 2
  %45 = load ptr, ptr %44, align 8, !tbaa !43
  %46 = call i32 %12(ptr noundef %15, ptr noundef %23, i32 noundef %26, ptr noundef %39, ptr noundef %42, ptr noundef %45)
  store i32 %46, ptr %8, align 4, !tbaa !10
  %47 = load i32, ptr %8, align 4, !tbaa !10
  %48 = icmp ne i32 %47, 0
  br i1 %48, label %49, label %53

49:                                               ; preds = %38
  %50 = load i32, ptr %8, align 4, !tbaa !10
  %51 = load ptr, ptr %7, align 8, !tbaa !9
  %52 = getelementptr inbounds nuw %struct.INamesArg, ptr %51, i32 0, i32 3
  store i32 %50, ptr %52, align 8, !tbaa !39
  store i32 1, ptr %4, align 4
  store i32 1, ptr %9, align 4
  br label %54

53:                                               ; preds = %38
  store i32 0, ptr %4, align 4
  store i32 1, ptr %9, align 4
  br label %54

54:                                               ; preds = %53, %49
  call void @llvm.lifetime.end.p0(i64 4, ptr %8) #8
  %55 = load i32, ptr %4, align 4
  ret i32 %55
}