; Function Attrs: nounwind uwtable
define internal range(i32 0, 2) i32 @i_names(ptr readnone captures(none) %0, ptr noundef %1, ptr noundef captures(none) %2) #2 {
  %4 = load ptr, ptr %2, align 8, !tbaa !32
  %5 = load ptr, ptr %1, align 8, !tbaa !37
  %6 = getelementptr inbounds nuw i8, ptr %1, i64 8
  %7 = load i32, ptr %6, align 8, !tbaa !40
  %8 = sext i32 %7 to i64
  %9 = getelementptr inbounds i8, ptr %5, i64 %8
  %10 = getelementptr inbounds nuw i8, ptr %1, i64 12
  %11 = load i32, ptr %10, align 4, !tbaa !41
  %12 = icmp sgt i32 %11, 1
  br i1 %12, label %13, label %16

13:                                               ; preds = %3
  %14 = getelementptr inbounds nuw i8, ptr %1, i64 24
  %15 = load ptr, ptr %14, align 8, !tbaa !42
  br label %18

16:                                               ; preds = %3
  %17 = getelementptr inbounds nuw i8, ptr %1, i64 20
  br label %18

18:                                               ; preds = %16, %13
  %19 = phi ptr [ %15, %13 ], [ %17, %16 ]
  %20 = getelementptr inbounds nuw i8, ptr %2, i64 8
  %21 = load ptr, ptr %20, align 8, !tbaa !33
  %22 = getelementptr inbounds nuw i8, ptr %2, i64 16
  %23 = load ptr, ptr %22, align 8, !tbaa !34
  %24 = tail call i32 %4(ptr noundef %5, ptr noundef %9, i32 noundef %11, ptr noundef %19, ptr noundef %21, ptr noundef %23) #25
  %.not = icmp eq i32 %24, 0
  br i1 %.not, label %27, label %25

25:                                               ; preds = %18
  %26 = getelementptr inbounds nuw i8, ptr %2, i64 24
  store i32 %24, ptr %26, align 8, !tbaa !29
  br label %27

27:                                               ; preds = %18, %25
  %.0 = phi i32 [ 1, %25 ], [ 0, %18 ]
  ret i32 %.0
}